; Function Attrs: nounwind uwtable
define range(i32 0, 2) i32 @BN_GF2m_arr2poly(ptr noundef readonly captures(none) %0, ptr noundef %1) local_unnamed_addr #0 {
  tail call void @BN_zero_ex(ptr noundef %1) #5
  %3 = load i32, ptr %0, align 4, !tbaa !16
  %.not9 = icmp eq i32 %3, -1
  br i1 %.not9, label %._crit_edge, label %.lr.ph

4:                                                ; preds = %.lr.ph
  %indvars.iv.next = add nuw nsw i64 %indvars.iv, 1
  %5 = getelementptr inbounds nuw i32, ptr %0, i64 %indvars.iv.next
  %6 = load i32, ptr %5, align 4, !tbaa !16
  %.not = icmp eq i32 %6, -1
  br i1 %.not, label %._crit_edge, label %.lr.ph, !llvm.loop !32

.lr.ph:                                           ; preds = %2, %4
  %indvars.iv = phi i64 [ %indvars.iv.next, %4 ], [ 0, %2 ]
  %7 = phi i32 [ %6, %4 ], [ %3, %2 ]
  %8 = tail call i32 @BN_set_bit(ptr noundef %1, i32 noundef %7) #5
  %9 = icmp eq i32 %8, 0
  br i1 %9, label %._crit_edge, label %4

._crit_edge:                                      ; preds = %.lr.ph, %4, %2
  %.07 = phi i32 [ 1, %2 ], [ 1, %4 ], [ 0, %.lr.ph ]
  ret i32 %.07
}